target datalayout = "e-m:e-p270:32:32-p271:32:32-p272:64:64-i64:64-i128:128-f80:128-n8:16:32:64-S128"
target triple = "x86_64-unknown-linux-gnu"

%"class.QuantLib::SquareRootProcessRNDCalculator" = type { %"class.QuantLib::RiskNeutralDensityCalculator", double, double, double, double, double }
%"class.QuantLib::RiskNeutralDensityCalculator" = type { ptr }
%"class.boost::math::policies::policy" = type { i8 }

; Function Attrs: inlinehint mustprogress uwtable
define linkonce_odr noundef double @_ZN5boost4math11gamma_p_invIddNS0_8policies6policyINS2_14default_policyES4_S4_S4_S4_S4_S4_S4_S4_S4_S4_S4_S4_EEEENS0_5tools12promote_argsIT_T0_ffffE4typeES8_S9_RKT1_(double noundef %a, double noundef %p, ptr noundef nonnull align 1 dereferenceable(1) %pol) #5 comdat {
entry:
  %a.addr = alloca double, align 8
  %p.addr = alloca double, align 8
  %pol.addr = alloca ptr, align 8
  store double %a, ptr %a.addr, align 8, !tbaa !7
  store double %p, ptr %p.addr, align 8, !tbaa !7
  store ptr %pol, ptr %pol.addr, align 8, !tbaa !3
  %0 = load double, ptr %a.addr, align 8, !tbaa !7
  %1 = load double, ptr %p.addr, align 8, !tbaa !7
  %2 = load ptr, ptr %pol.addr, align 8, !tbaa !3
  %call = call noundef double @_ZN5boost4math6detail15gamma_p_inv_impIdNS0_8policies6policyINS3_14default_policyES5_S5_S5_S5_S5_S5_S5_S5_S5_S5_S5_S5_EEEET_S7_S7_RKT0_(double noundef %0, double noundef %1, ptr noundef nonnull align 1 dereferenceable(1) %2)
  ret double %call
}

; Function Attrs: inlinehint mustprogress uwtable
define linkonce_odr noundef double @_ZN5boost4math11gamma_p_invIddEENS0_5tools12promote_argsIT_T0_ffffE4typeES4_S5_(double noundef %a, double noundef %p) #5 comdat {
entry:
  %a.addr = alloca double, align 8
  %p.addr = alloca double, align 8
  %ref.tmp = alloca %"class.boost::math::policies::policy", align 1
  store double %a, ptr %a.addr, align 8, !tbaa !7
  store double %p, ptr %p.addr, align 8, !tbaa !7
  %0 = load double, ptr %a.addr, align 8, !tbaa !7
  %1 = load double, ptr %p.addr, align 8, !tbaa !7
  call void @llvm.lifetime.start.p0(i64 1, ptr %ref.tmp) #25
  %call = call noundef double @_ZN5boost4math11gamma_p_invIddNS0_8policies6policyINS2_14default_policyES4_S4_S4_S4_S4_S4_S4_S4_S4_S4_S4_S4_EEEENS0_5tools12promote_argsIT_T0_ffffE4typeES8_S9_RKT1_(double noundef %0, double noundef %1, ptr noundef nonnull align 1 dereferenceable(1) %ref.tmp)
  call void @llvm.lifetime.end.p0(i64 1, ptr %ref.tmp) #25
  ret double %call
}

; Function Attrs: mustprogress uwtable
define noundef double @_ZNK8QuantLib30SquareRootProcessRNDCalculator17stationary_invcdfEd(ptr noundef nonnull align 8 dereferenceable(48) %this, double noundef %q) #2 align 2 {
entry:
  %this.addr = alloca ptr, align 8
  %q.addr = alloca double, align 8
  %alpha = alloca double, align 8
  %beta = alloca double, align 8
  store ptr %this, ptr %this.addr, align 8, !tbaa !3
  store double %q, ptr %q.addr, align 8, !tbaa !7
  %this1 = load ptr, ptr %this.addr, align 8
  call void @llvm.lifetime.start.p0(i64 8, ptr %alpha) #25
  %df_ = getelementptr inbounds nuw %"class.QuantLib::SquareRootProcessRNDCalculator", ptr %this1, i32 0, i32 5
  %0 = load double, ptr %df_, align 8, !tbaa !17
  %mul = fmul double 5.000000e-01, %0
  store double %mul, ptr %alpha, align 8, !tbaa !7
  call void @llvm.lifetime.start.p0(i64 8, ptr %beta) #25
  %1 = load double, ptr %alpha, align 8, !tbaa !7
  %theta_ = getelementptr inbounds nuw %"class.QuantLib::SquareRootProcessRNDCalculator", ptr %this1, i32 0, i32 3
  %2 = load double, ptr %theta_, align 8, !tbaa !15
  %div = fdiv double %1, %2
  store double %div, ptr %beta, align 8, !tbaa !7
  %3 = load double, ptr %alpha, align 8, !tbaa !7
  %4 = load double, ptr %q.addr, align 8, !tbaa !7
  %call = call noundef double @_ZN5boost4math11gamma_p_invIddEENS0_5tools12promote_argsIT_T0_ffffE4typeES4_S5_(double noundef %3, double noundef %4)
  %5 = load double, ptr %beta, align 8, !tbaa !7
  %div2 = fdiv double %call, %5
  call void @llvm.lifetime.end.p0(i64 8, ptr %beta) #25
  call void @llvm.lifetime.end.p0(i64 8, ptr %alpha) #25
  ret double %div2
}