; Function Attrs: mustprogress uwtable
define noundef double @_ZNK8QuantLib30SquareRootProcessRNDCalculator17stationary_invcdfEd(ptr nocapture noundef nonnull readonly align 8 dereferenceable(48) %this, double noundef %q) local_unnamed_addr #1 align 2 {
entry:
  %ref.tmp.i = alloca %"class.boost::math::policies::policy", align 1
  %df_ = getelementptr inbounds nuw i8, ptr %this, i64 40
  %0 = load double, ptr %df_, align 8, !tbaa !14
  %mul = fmul double %0, 5.000000e-01
  %theta_ = getelementptr inbounds nuw i8, ptr %this, i64 24
  %1 = load double, ptr %theta_, align 8, !tbaa !12
  %div = fdiv double %mul, %1
  call void @llvm.lifetime.start.p0(i64 1, ptr nonnull %ref.tmp.i) #35
  %call.i.i = call noundef double @_ZN5boost4math6detail15gamma_p_inv_impIdNS0_8policies6policyINS3_14default_policyES5_S5_S5_S5_S5_S5_S5_S5_S5_S5_S5_S5_EEEET_S7_S7_RKT0_(double noundef %mul, double noundef %q, ptr noundef nonnull align 1 dereferenceable(1) %ref.tmp.i)
  call void @llvm.lifetime.end.p0(i64 1, ptr nonnull %ref.tmp.i) #35
  %div2 = fdiv double %call.i.i, %div
  ret double %div2
}